target datalayout = "e-m:e-p270:32:32-p271:32:32-p272:64:64-i64:64-i128:128-f80:128-n8:16:32:64-S128"
target triple = "x86_64-pc-linux-gnu"

; Function Attrs: inlinehint mustprogress nounwind uwtable
define internal noundef signext i8 @_ZL16isLabelSeparatorDs(i16 noundef zeroext %0) #1 {
  %2 = alloca i8, align 1
  %3 = alloca i16, align 2
  store i16 %0, ptr %3, align 2, !tbaa !20
  %4 = load i16, ptr %3, align 2, !tbaa !20
  %5 = zext i16 %4 to i32
  switch i32 %5, label %7 [
    i32 46, label %6
    i32 12290, label %6
    i32 65294, label %6
    i32 65377, label %6
  ]

6:                                                ; preds = %1, %1, %1, %1
  store i8 1, ptr %2, align 1
  br label %8

7:                                                ; preds = %1
  store i8 0, ptr %2, align 1
  br label %8

8:                                                ; preds = %7, %6
  %9 = load i8, ptr %2, align 1
  ret i8 %9
}

; Function Attrs: inlinehint mustprogress uwtable
define internal noundef i32 @_ZL16getNextSeparatorPDsiPS_Pa(ptr noundef %0, i32 noundef %1, ptr noundef %2, ptr noundef %3) #4 {
  %5 = alloca i32, align 4
  %6 = alloca ptr, align 8
  %7 = alloca i32, align 4
  %8 = alloca ptr, align 8
  %9 = alloca ptr, align 8
  %10 = alloca i32, align 4
  %11 = alloca i32, align 4
  %12 = alloca i32, align 4
  store ptr %0, ptr %6, align 8, !tbaa !3
  store i32 %1, ptr %7, align 4, !tbaa !8
  store ptr %2, ptr %8, align 8, !tbaa !28
  store ptr %3, ptr %9, align 8, !tbaa !17
  %13 = load i32, ptr %7, align 4, !tbaa !8
  %14 = icmp eq i32 %13, -1
  br i1 %14, label %15, label %53

15:                                               ; preds = %4
  call void @llvm.lifetime.start.p0(i64 4, ptr %10) #6
  store i32 0, ptr %10, align 4, !tbaa !8
  br label %16

16:                                               ; preds = %49, %15
  %17 = load ptr, ptr %6, align 8, !tbaa !3
  %18 = load i32, ptr %10, align 4, !tbaa !8
  %19 = sext i32 %18 to i64
  %20 = getelementptr inbounds i16, ptr %17, i64 %19
  %21 = load i16, ptr %20, align 2, !tbaa !20
  %22 = zext i16 %21 to i32
  %23 = icmp eq i32 %22, 0
  br i1 %23, label %24, label %32

24:                                               ; preds = %16
  %25 = load ptr, ptr %6, align 8, !tbaa !3
  %26 = load i32, ptr %10, align 4, !tbaa !8
  %27 = sext i32 %26 to i64
  %28 = getelementptr inbounds i16, ptr %25, i64 %27
  %29 = load ptr, ptr %8, align 8, !tbaa !28
  store ptr %28, ptr %29, align 8, !tbaa !3
  %30 = load ptr, ptr %9, align 8, !tbaa !17
  store i8 1, ptr %30, align 1, !tbaa !19
  %31 = load i32, ptr %10, align 4, !tbaa !8
  store i32 %31, ptr %5, align 4
  store i32 1, ptr %11, align 4
  br label %52

32:                                               ; preds = %16
  %33 = load ptr, ptr %6, align 8, !tbaa !3
  %34 = load i32, ptr %10, align 4, !tbaa !8
  %35 = sext i32 %34 to i64
  %36 = getelementptr inbounds i16, ptr %33, i64 %35
  %37 = load i16, ptr %36, align 2, !tbaa !20
  %38 = call noundef signext i8 @_ZL16isLabelSeparatorDs(i16 noundef zeroext %37)
  %39 = icmp ne i8 %38, 0
  br i1 %39, label %40, label %48

40:                                               ; preds = %32
  %41 = load ptr, ptr %6, align 8, !tbaa !3
  %42 = load i32, ptr %10, align 4, !tbaa !8
  %43 = add nsw i32 %42, 1
  %44 = sext i32 %43 to i64
  %45 = getelementptr inbounds i16, ptr %41, i64 %44
  %46 = load ptr, ptr %8, align 8, !tbaa !28
  store ptr %45, ptr %46, align 8, !tbaa !3
  %47 = load i32, ptr %10, align 4, !tbaa !8
  store i32 %47, ptr %5, align 4
  store i32 1, ptr %11, align 4
  br label %52

48:                                               ; preds = %32
  br label %49

49:                                               ; preds = %48
  %50 = load i32, ptr %10, align 4, !tbaa !8
  %51 = add nsw i32 %50, 1
  store i32 %51, ptr %10, align 4, !tbaa !8
  br label %16, !llvm.loop !31

52:                                               ; preds = %40, %24
  call void @llvm.lifetime.end.p0(i64 4, ptr %10) #6
  br label %87

53:                                               ; preds = %4
  call void @llvm.lifetime.start.p0(i64 4, ptr %12) #6
  store i32 0, ptr %12, align 4, !tbaa !8
  br label %54

54:                                               ; preds = %75, %53
  %55 = load i32, ptr %12, align 4, !tbaa !8
  %56 = load i32, ptr %7, align 4, !tbaa !8
  %57 = icmp slt i32 %55, %56
  br i1 %57, label %58, label %78

58:                                               ; preds = %54
  %59 = load ptr, ptr %6, align 8, !tbaa !3
  %60 = load i32, ptr %12, align 4, !tbaa !8
  %61 = sext i32 %60 to i64
  %62 = getelementptr inbounds i16, ptr %59, i64 %61
  %63 = load i16, ptr %62, align 2, !tbaa !20
  %64 = call noundef signext i8 @_ZL16isLabelSeparatorDs(i16 noundef zeroext %63)
  %65 = icmp ne i8 %64, 0
  br i1 %65, label %66, label %74

66:                                               ; preds = %58
  %67 = load ptr, ptr %6, align 8, !tbaa !3
  %68 = load i32, ptr %12, align 4, !tbaa !8
  %69 = add nsw i32 %68, 1
  %70 = sext i32 %69 to i64
  %71 = getelementptr inbounds i16, ptr %67, i64 %70
  %72 = load ptr, ptr %8, align 8, !tbaa !28
  store ptr %71, ptr %72, align 8, !tbaa !3
  %73 = load i32, ptr %12, align 4, !tbaa !8
  store i32 %73, ptr %5, align 4
  store i32 1, ptr %11, align 4
  br label %86

74:                                               ; preds = %58
  br label %75

75:                                               ; preds = %74
  %76 = load i32, ptr %12, align 4, !tbaa !8
  %77 = add nsw i32 %76, 1
  store i32 %77, ptr %12, align 4, !tbaa !8
  br label %54, !llvm.loop !32

78:                                               ; preds = %54
  %79 = load ptr, ptr %6, align 8, !tbaa !3
  %80 = load i32, ptr %7, align 4, !tbaa !8
  %81 = sext i32 %80 to i64
  %82 = getelementptr inbounds i16, ptr %79, i64 %81
  %83 = load ptr, ptr %8, align 8, !tbaa !28
  store ptr %82, ptr %83, align 8, !tbaa !3
  %84 = load ptr, ptr %9, align 8, !tbaa !17
  store i8 1, ptr %84, align 1, !tbaa !19
  %85 = load i32, ptr %12, align 4, !tbaa !8
  store i32 %85, ptr %5, align 4
  store i32 1, ptr %11, align 4
  br label %86

86:                                               ; preds = %78, %66
  call void @llvm.lifetime.end.p0(i64 4, ptr %12) #6
  br label %87

87:                                               ; preds = %86, %52
  %88 = load i32, ptr %5, align 4
  ret i32 %88
}

; Function Attrs: inlinehint mustprogress nounwind uwtable
define internal noundef signext i8 @_ZL9U_FAILURE10UErrorCode(i32 noundef %0) #1 {
  %2 = alloca i32, align 4
  store i32 %0, ptr %2, align 4, !tbaa !13
  %3 = load i32, ptr %2, align 4, !tbaa !13
  %4 = icmp sgt i32 %3, 0
  %5 = zext i1 %4 to i8
  ret i8 %5
}

; Function Attrs: mustprogress uwtable
define i32 @uidna_IDNToASCII_77(ptr noundef %0, i32 noundef %1, ptr noundef %2, i32 noundef %3, i32 noundef %4, ptr noundef %5, ptr noundef %6) #0 {
  %8 = alloca i32, align 4
  %9 = alloca ptr, align 8
  %10 = alloca i32, align 4
  %11 = alloca ptr, align 8
  %12 = alloca i32, align 4
  %13 = alloca i32, align 4
  %14 = alloca ptr, align 8
  %15 = alloca ptr, align 8
  %16 = alloca i32, align 4
  %17 = alloca ptr, align 8
  %18 = alloca i32, align 4
  %19 = alloca ptr, align 8
  %20 = alloca ptr, align 8
  %21 = alloca ptr, align 8
  %22 = alloca i32, align 4
  %23 = alloca i32, align 4
  %24 = alloca i32, align 4
  %25 = alloca i32, align 4
  %26 = alloca i8, align 1
  store ptr %0, ptr %9, align 8, !tbaa !3
  store i32 %1, ptr %10, align 4, !tbaa !8
  store ptr %2, ptr %11, align 8, !tbaa !3
  store i32 %3, ptr %12, align 4, !tbaa !8
  store i32 %4, ptr %13, align 4, !tbaa !8
  store ptr %5, ptr %14, align 8, !tbaa !10
  store ptr %6, ptr %15, align 8, !tbaa !12
  %27 = load ptr, ptr %15, align 8, !tbaa !12
  %28 = icmp eq ptr %27, null
  br i1 %28, label %34, label %29

29:                                               ; preds = %7
  %30 = load ptr, ptr %15, align 8, !tbaa !12
  %31 = load i32, ptr %30, align 4, !tbaa !13
  %32 = call noundef signext i8 @_ZL9U_FAILURE10UErrorCode(i32 noundef %31)
  %33 = icmp ne i8 %32, 0
  br i1 %33, label %34, label %35

34:                                               ; preds = %29, %7
  store i32 0, ptr %8, align 4
  br label %156

35:                                               ; preds = %29
  %36 = load ptr, ptr %9, align 8, !tbaa !3
  %37 = icmp eq ptr %36, null
  br i1 %37, label %50, label %38

38:                                               ; preds = %35
  %39 = load i32, ptr %10, align 4, !tbaa !8
  %40 = icmp slt i32 %39, -1
  br i1 %40, label %50, label %41

41:                                               ; preds = %38
  %42 = load i32, ptr %12, align 4, !tbaa !8
  %43 = icmp slt i32 %42, 0
  br i1 %43, label %50, label %44

44:                                               ; preds = %41
  %45 = load ptr, ptr %11, align 8, !tbaa !3
  %46 = icmp ne ptr %45, null
  br i1 %46, label %52, label %47

47:                                               ; preds = %44
  %48 = load i32, ptr %12, align 4, !tbaa !8
  %49 = icmp sgt i32 %48, 0
  br i1 %49, label %50, label %52

50:                                               ; preds = %47, %41, %38, %35
  %51 = load ptr, ptr %15, align 8, !tbaa !12
  store i32 1, ptr %51, align 4, !tbaa !13
  store i32 0, ptr %8, align 4
  br label %156

52:                                               ; preds = %47, %44
  call void @llvm.lifetime.start.p0(i64 4, ptr %16) #6
  store i32 0, ptr %16, align 4, !tbaa !8
  call void @llvm.lifetime.start.p0(i64 8, ptr %17) #6
  %53 = load ptr, ptr %15, align 8, !tbaa !12
  %54 = call ptr @usprep_openByType_77(i32 noundef 0, ptr noundef %53)
  store ptr %54, ptr %17, align 8, !tbaa !15
  %55 = load ptr, ptr %15, align 8, !tbaa !12
  %56 = load i32, ptr %55, align 4, !tbaa !13
  %57 = call noundef signext i8 @_ZL9U_FAILURE10UErrorCode(i32 noundef %56)
  %58 = icmp ne i8 %57, 0
  br i1 %58, label %59, label %60

59:                                               ; preds = %52
  store i32 0, ptr %8, align 4
  store i32 1, ptr %18, align 4
  br label %155

60:                                               ; preds = %52
  call void @llvm.lifetime.start.p0(i64 8, ptr %19) #6
  %61 = load ptr, ptr %9, align 8, !tbaa !3
  store ptr %61, ptr %19, align 8, !tbaa !3
  call void @llvm.lifetime.start.p0(i64 8, ptr %20) #6
  %62 = load ptr, ptr %9, align 8, !tbaa !3
  store ptr %62, ptr %20, align 8, !tbaa !3
  call void @llvm.lifetime.start.p0(i64 8, ptr %21) #6
  %63 = load ptr, ptr %11, align 8, !tbaa !3
  store ptr %63, ptr %21, align 8, !tbaa !3
  call void @llvm.lifetime.start.p0(i64 4, ptr %22) #6
  %64 = load i32, ptr %10, align 4, !tbaa !8
  store i32 %64, ptr %22, align 4, !tbaa !8
  call void @llvm.lifetime.start.p0(i64 4, ptr %23) #6
  %65 = load i32, ptr %12, align 4, !tbaa !8
  store i32 %65, ptr %23, align 4, !tbaa !8
  call void @llvm.lifetime.start.p0(i64 4, ptr %24) #6
  store i32 0, ptr %24, align 4, !tbaa !8
  call void @llvm.lifetime.start.p0(i64 4, ptr %25) #6
  store i32 0, ptr %25, align 4, !tbaa !8
  call void @llvm.lifetime.start.p0(i64 1, ptr %26) #6
  store i8 0, ptr %26, align 1, !tbaa !19
  br label %66

66:                                               ; preds = %142, %60
  %67 = load ptr, ptr %20, align 8, !tbaa !3
  %68 = load i32, ptr %22, align 4, !tbaa !8
  %69 = call noundef i32 @_ZL16getNextSeparatorPDsiPS_Pa(ptr noundef %67, i32 noundef %68, ptr noundef %19, ptr noundef %26)
  store i32 %69, ptr %24, align 4, !tbaa !8
  store i32 0, ptr %25, align 4, !tbaa !8
  %70 = load i32, ptr %24, align 4, !tbaa !8
  %71 = icmp eq i32 %70, 0
  br i1 %71, label %72, label %75

72:                                               ; preds = %66
  %73 = load i8, ptr %26, align 1, !tbaa !19
  %74 = icmp ne i8 %73, 0
  br i1 %74, label %91, label %75

75:                                               ; preds = %72, %66
  %76 = load ptr, ptr %20, align 8, !tbaa !3
  %77 = load i32, ptr %24, align 4, !tbaa !8
  %78 = load ptr, ptr %21, align 8, !tbaa !3
  %79 = load i32, ptr %23, align 4, !tbaa !8
  %80 = load i32, ptr %13, align 4, !tbaa !8
  %81 = load ptr, ptr %17, align 8, !tbaa !15
  %82 = load ptr, ptr %14, align 8, !tbaa !10
  %83 = load ptr, ptr %15, align 8, !tbaa !12
  %84 = call noundef i32 @_ZL17_internal_toASCIIPKDsiPDsiiP18UStringPrepProfileP11UParseErrorP10UErrorCode(ptr noundef %76, i32 noundef %77, ptr noundef %78, i32 noundef %79, i32 noundef %80, ptr noundef %81, ptr noundef %82, ptr noundef %83)
  store i32 %84, ptr %25, align 4, !tbaa !8
  %85 = load ptr, ptr %15, align 8, !tbaa !12
  %86 = load i32, ptr %85, align 4, !tbaa !13
  %87 = icmp eq i32 %86, 15
  br i1 %87, label %88, label %90

88:                                               ; preds = %75
  %89 = load ptr, ptr %15, align 8, !tbaa !12
  store i32 0, ptr %89, align 4, !tbaa !13
  store i32 0, ptr %23, align 4, !tbaa !8
  br label %90

90:                                               ; preds = %88, %75
  br label %91

91:                                               ; preds = %90, %72
  %92 = load ptr, ptr %15, align 8, !tbaa !12
  %93 = load i32, ptr %92, align 4, !tbaa !13
  %94 = call noundef signext i8 @_ZL9U_FAILURE10UErrorCode(i32 noundef %93)
  %95 = icmp ne i8 %94, 0
  br i1 %95, label %96, label %97

96:                                               ; preds = %91
  br label %143

97:                                               ; preds = %91
  %98 = load i32, ptr %25, align 4, !tbaa !8
  %99 = load i32, ptr %16, align 4, !tbaa !8
  %100 = add nsw i32 %99, %98
  store i32 %100, ptr %16, align 4, !tbaa !8
  %101 = load i32, ptr %25, align 4, !tbaa !8
  %102 = load i32, ptr %23, align 4, !tbaa !8
  %103 = icmp slt i32 %101, %102
  br i1 %103, label %104, label %112

104:                                              ; preds = %97
  %105 = load ptr, ptr %21, align 8, !tbaa !3
  %106 = load i32, ptr %25, align 4, !tbaa !8
  %107 = sext i32 %106 to i64
  %108 = getelementptr inbounds i16, ptr %105, i64 %107
  store ptr %108, ptr %21, align 8, !tbaa !3
  %109 = load i32, ptr %25, align 4, !tbaa !8
  %110 = load i32, ptr %23, align 4, !tbaa !8
  %111 = sub nsw i32 %110, %109
  store i32 %111, ptr %23, align 4, !tbaa !8
  br label %113

112:                                              ; preds = %97
  store i32 0, ptr %23, align 4, !tbaa !8
  br label %113

113:                                              ; preds = %112, %104
  %114 = load i8, ptr %26, align 1, !tbaa !19
  %115 = icmp ne i8 %114, 0
  br i1 %115, label %116, label %117

116:                                              ; preds = %113
  br label %143

117:                                              ; preds = %113
  %118 = load i32, ptr %23, align 4, !tbaa !8
  %119 = icmp sgt i32 %118, 0
  br i1 %119, label %120, label %125

120:                                              ; preds = %117
  %121 = load ptr, ptr %21, align 8, !tbaa !3
  %122 = getelementptr inbounds nuw i16, ptr %121, i32 1
  store ptr %122, ptr %21, align 8, !tbaa !3
  store i16 46, ptr %121, align 2, !tbaa !20
  %123 = load i32, ptr %23, align 4, !tbaa !8
  %124 = add nsw i32 %123, -1
  store i32 %124, ptr %23, align 4, !tbaa !8
  br label %125

125:                                              ; preds = %120, %117
  %126 = load i32, ptr %16, align 4, !tbaa !8
  %127 = add nsw i32 %126, 1
  store i32 %127, ptr %16, align 4, !tbaa !8
  %128 = load ptr, ptr %19, align 8, !tbaa !3
  store ptr %128, ptr %20, align 8, !tbaa !3
  %129 = load i32, ptr %22, align 4, !tbaa !8
  %130 = icmp sgt i32 %129, 0
  br i1 %130, label %131, label %142

131:                                              ; preds = %125
  %132 = load i32, ptr %10, align 4, !tbaa !8
  %133 = sext i32 %132 to i64
  %134 = load ptr, ptr %19, align 8, !tbaa !3
  %135 = load ptr, ptr %9, align 8, !tbaa !3
  %136 = ptrtoint ptr %134 to i64
  %137 = ptrtoint ptr %135 to i64
  %138 = sub i64 %136, %137
  %139 = sdiv exact i64 %138, 2
  %140 = sub nsw i64 %133, %139
  %141 = trunc i64 %140 to i32
  store i32 %141, ptr %22, align 4, !tbaa !8
  br label %142

142:                                              ; preds = %131, %125
  br label %66, !llvm.loop !27

143:                                              ; preds = %116, %96
  %144 = load i32, ptr %16, align 4, !tbaa !8
  %145 = icmp sgt i32 %144, 255
  br i1 %145, label %146, label %148

146:                                              ; preds = %143
  %147 = load ptr, ptr %15, align 8, !tbaa !12
  store i32 66568, ptr %147, align 4, !tbaa !13
  br label %148

148:                                              ; preds = %146, %143
  %149 = load ptr, ptr %17, align 8, !tbaa !15
  call void @usprep_close_77(ptr noundef %149)
  %150 = load ptr, ptr %11, align 8, !tbaa !3
  %151 = load i32, ptr %12, align 4, !tbaa !8
  %152 = load i32, ptr %16, align 4, !tbaa !8
  %153 = load ptr, ptr %15, align 8, !tbaa !12
  %154 = call i32 @u_terminateUChars_77(ptr noundef %150, i32 noundef %151, i32 noundef %152, ptr noundef %153)
  store i32 %154, ptr %8, align 4
  store i32 1, ptr %18, align 4
  call void @llvm.lifetime.end.p0(i64 1, ptr %26) #6
  call void @llvm.lifetime.end.p0(i64 4, ptr %25) #6
  call void @llvm.lifetime.end.p0(i64 4, ptr %24) #6
  call void @llvm.lifetime.end.p0(i64 4, ptr %23) #6
  call void @llvm.lifetime.end.p0(i64 4, ptr %22) #6
  call void @llvm.lifetime.end.p0(i64 8, ptr %21) #6
  call void @llvm.lifetime.end.p0(i64 8, ptr %20) #6
  call void @llvm.lifetime.end.p0(i64 8, ptr %19) #6
  br label %155

155:                                              ; preds = %148, %59
  call void @llvm.lifetime.end.p0(i64 8, ptr %17) #6
  call void @llvm.lifetime.end.p0(i64 4, ptr %16) #6
  br label %156

156:                                              ; preds = %155, %50, %34
  %157 = load i32, ptr %8, align 4
  ret i32 %157
}