; Function Attrs: mustprogress uwtable
define i32 @uidna_IDNToASCII_77(ptr noundef %0, i32 noundef %1, ptr noundef %2, i32 noundef %3, i32 noundef %4, ptr noundef %5, ptr noundef %6) local_unnamed_addr #0 {
  %8 = icmp eq ptr %6, null
  br i1 %8, label %78, label %9

9:                                                ; preds = %7
  %10 = load i32, ptr %6, align 4, !tbaa !3
  %11 = icmp slt i32 %10, 1
  br i1 %11, label %12, label %78

12:                                               ; preds = %9
  %13 = icmp eq ptr %0, null
  %14 = icmp slt i32 %1, -1
  %or.cond = or i1 %13, %14
  %15 = icmp slt i32 %3, 0
  %or.cond3 = or i1 %or.cond, %15
  br i1 %or.cond3, label %19, label %16

16:                                               ; preds = %12
  %17 = icmp eq ptr %2, null
  %18 = icmp ne i32 %3, 0
  %or.cond5 = and i1 %17, %18
  br i1 %or.cond5, label %19, label %20

19:                                               ; preds = %16, %12
  store i32 1, ptr %6, align 4, !tbaa !3
  br label %78

20:                                               ; preds = %16
  %21 = tail call ptr @usprep_openByType_77(i32 noundef 0, ptr noundef nonnull %6)
  %22 = load i32, ptr %6, align 4, !tbaa !3
  %23 = icmp slt i32 %22, 1
  br i1 %23, label %.preheader, label %78

.preheader:                                       ; preds = %20
  %24 = ptrtoint ptr %0 to i64
  br label %25

25:                                               ; preds = %.preheader, %65
  %26 = phi i32 [ %60, %65 ], [ %22, %.preheader ]
  %.067 = phi i32 [ %66, %65 ], [ 0, %.preheader ]
  %.064 = phi ptr [ %.07995104111, %65 ], [ %0, %.preheader ]
  %.061 = phi ptr [ %.263, %65 ], [ %2, %.preheader ]
  %.059 = phi i32 [ %.160, %65 ], [ %1, %.preheader ]
  %.058 = phi i32 [ %.3, %65 ], [ %3, %.preheader ]
  %27 = icmp eq i32 %.059, -1
  br i1 %27, label %.preheader.i, label %.preheader39.i

.preheader39.i:                                   ; preds = %25
  %28 = icmp sgt i32 %.059, 0
  br i1 %28, label %.lr.ph.preheader.i, label %._crit_edge.i

.lr.ph.preheader.i:                               ; preds = %.preheader39.i
  %wide.trip.count.i = zext nneg i32 %.059 to i64
  br label %.lr.ph.i

.preheader.i:                                     ; preds = %25, %36
  %indvars.iv55.i = phi i64 [ %indvars.iv.next56.i, %36 ], [ 0, %25 ]
  %29 = getelementptr inbounds nuw i16, ptr %.064, i64 %indvars.iv55.i
  %30 = load i16, ptr %29, align 2, !tbaa !7
  switch i16 %30, label %36 [
    i16 0, label %31
    i16 46, label %_ZL16isLabelSeparatorDs.exit.i
    i16 12290, label %_ZL16isLabelSeparatorDs.exit.i
    i16 -242, label %_ZL16isLabelSeparatorDs.exit.i
    i16 -159, label %_ZL16isLabelSeparatorDs.exit.i
  ]

31:                                               ; preds = %.preheader.i
  %32 = trunc nuw nsw i64 %indvars.iv55.i to i32
  br label %_ZL16getNextSeparatorPDsiPS_Pa.exit

_ZL16isLabelSeparatorDs.exit.i:                   ; preds = %.preheader.i, %.preheader.i, %.preheader.i, %.preheader.i
  %33 = getelementptr inbounds nuw i16, ptr %.064, i64 %indvars.iv55.i
  %34 = trunc nuw nsw i64 %indvars.iv55.i to i32
  %35 = getelementptr inbounds nuw i8, ptr %33, i64 2
  br label %_ZL16getNextSeparatorPDsiPS_Pa.exit.thread

36:                                               ; preds = %.preheader.i
  %indvars.iv.next56.i = add nuw nsw i64 %indvars.iv55.i, 1
  br label %.preheader.i, !llvm.loop !16

.lr.ph.i:                                         ; preds = %42, %.lr.ph.preheader.i
  %indvars.iv.i = phi i64 [ 0, %.lr.ph.preheader.i ], [ %indvars.iv.next.i, %42 ]
  %37 = getelementptr inbounds nuw i16, ptr %.064, i64 %indvars.iv.i
  %38 = load i16, ptr %37, align 2, !tbaa !7
  switch i16 %38, label %42 [
    i16 46, label %_ZL16isLabelSeparatorDs.exit34.i
    i16 12290, label %_ZL16isLabelSeparatorDs.exit34.i
    i16 -242, label %_ZL16isLabelSeparatorDs.exit34.i
    i16 -159, label %_ZL16isLabelSeparatorDs.exit34.i
  ]

_ZL16isLabelSeparatorDs.exit34.i:                 ; preds = %.lr.ph.i, %.lr.ph.i, %.lr.ph.i, %.lr.ph.i
  %39 = getelementptr inbounds nuw i16, ptr %.064, i64 %indvars.iv.i
  %40 = trunc nuw nsw i64 %indvars.iv.i to i32
  %41 = getelementptr inbounds nuw i8, ptr %39, i64 2
  br label %_ZL16getNextSeparatorPDsiPS_Pa.exit.thread

42:                                               ; preds = %.lr.ph.i
  %indvars.iv.next.i = add nuw nsw i64 %indvars.iv.i, 1
  %exitcond.not.i = icmp eq i64 %indvars.iv.next.i, %wide.trip.count.i
  br i1 %exitcond.not.i, label %._crit_edge.i, label %.lr.ph.i, !llvm.loop !17

._crit_edge.i:                                    ; preds = %42, %.preheader39.i
  %.0.lcssa.i = phi i32 [ 0, %.preheader39.i ], [ %.059, %42 ]
  %43 = sext i32 %.059 to i64
  br label %_ZL16getNextSeparatorPDsiPS_Pa.exit

_ZL16getNextSeparatorPDsiPS_Pa.exit:              ; preds = %31, %._crit_edge.i
  %indvars.iv55.i.pn = phi i64 [ %indvars.iv55.i, %31 ], [ %43, %._crit_edge.i ]
  %.1.i = phi i32 [ %32, %31 ], [ %.0.lcssa.i, %._crit_edge.i ]
  %.079 = getelementptr inbounds i16, ptr %.064, i64 %indvars.iv55.i.pn
  %44 = icmp eq i32 %.1.i, 0
  br i1 %44, label %51, label %_ZL16getNextSeparatorPDsiPS_Pa.exit.thread

_ZL16getNextSeparatorPDsiPS_Pa.exit.thread:       ; preds = %_ZL16isLabelSeparatorDs.exit34.i, %_ZL16isLabelSeparatorDs.exit.i, %_ZL16getNextSeparatorPDsiPS_Pa.exit
  %.1.i98 = phi i32 [ %.1.i, %_ZL16getNextSeparatorPDsiPS_Pa.exit ], [ %40, %_ZL16isLabelSeparatorDs.exit34.i ], [ %34, %_ZL16isLabelSeparatorDs.exit.i ]
  %.not7596 = phi i1 [ false, %_ZL16getNextSeparatorPDsiPS_Pa.exit ], [ true, %_ZL16isLabelSeparatorDs.exit34.i ], [ true, %_ZL16isLabelSeparatorDs.exit.i ]
  %.07994 = phi ptr [ %.079, %_ZL16getNextSeparatorPDsiPS_Pa.exit ], [ %41, %_ZL16isLabelSeparatorDs.exit34.i ], [ %35, %_ZL16isLabelSeparatorDs.exit.i ]
  %45 = tail call fastcc noundef i32 @_ZL17_internal_toASCIIPKDsiPDsiiP18UStringPrepProfileP11UParseErrorP10UErrorCode(ptr noundef %.064, i32 noundef %.1.i98, ptr noundef %.061, i32 noundef %.058, i32 noundef %4, ptr noundef %21, ptr noundef %5, ptr noundef %6)
  %46 = load i32, ptr %6, align 4, !tbaa !3
  %47 = icmp eq i32 %46, 15
  br i1 %47, label %.thread, label %51

.thread:                                          ; preds = %_ZL16getNextSeparatorPDsiPS_Pa.exit.thread
  store i32 0, ptr %6, align 4, !tbaa !3
  %48 = add nsw i32 %45, %.067
  %49 = icmp slt i32 %45, 0
  %50 = sub nsw i32 0, %45
  %narrow107 = tail call i32 @llvm.smin.i32(i32 %45, i32 0)
  %.2110 = select i1 %49, i32 %50, i32 0
  br i1 %.not7596, label %58, label %73

51:                                               ; preds = %_ZL16getNextSeparatorPDsiPS_Pa.exit.thread, %_ZL16getNextSeparatorPDsiPS_Pa.exit
  %.not7597 = phi i1 [ false, %_ZL16getNextSeparatorPDsiPS_Pa.exit ], [ %.not7596, %_ZL16getNextSeparatorPDsiPS_Pa.exit.thread ]
  %.07995 = phi ptr [ %.079, %_ZL16getNextSeparatorPDsiPS_Pa.exit ], [ %.07994, %_ZL16getNextSeparatorPDsiPS_Pa.exit.thread ]
  %52 = phi i32 [ %26, %_ZL16getNextSeparatorPDsiPS_Pa.exit ], [ %46, %_ZL16getNextSeparatorPDsiPS_Pa.exit.thread ]
  %.0 = phi i32 [ 0, %_ZL16getNextSeparatorPDsiPS_Pa.exit ], [ %45, %_ZL16getNextSeparatorPDsiPS_Pa.exit.thread ]
  %53 = icmp slt i32 %52, 1
  br i1 %53, label %54, label %73

54:                                               ; preds = %51
  %55 = add nsw i32 %.0, %.067
  %56 = icmp slt i32 %.0, %.058
  %57 = sub nsw i32 %.058, %.0
  %narrow = select i1 %56, i32 %.0, i32 0
  %.2 = select i1 %56, i32 %57, i32 0
  br i1 %.not7597, label %58, label %73

58:                                               ; preds = %.thread, %54
  %.2113 = phi i32 [ %.2110, %.thread ], [ %.2, %54 ]
  %.162.idx108.pn.in = phi i32 [ %narrow107, %.thread ], [ %narrow, %54 ]
  %59 = phi i32 [ %48, %.thread ], [ %55, %54 ]
  %.07995104111 = phi ptr [ %.07994, %.thread ], [ %.07995, %54 ]
  %60 = phi i32 [ 0, %.thread ], [ %52, %54 ]
  %.162.idx108.pn = sext i32 %.162.idx108.pn.in to i64
  %.162112 = getelementptr inbounds i16, ptr %.061, i64 %.162.idx108.pn
  %61 = icmp sgt i32 %.2113, 0
  br i1 %61, label %62, label %65

62:                                               ; preds = %58
  %63 = getelementptr inbounds nuw i8, ptr %.162112, i64 2
  store i16 46, ptr %.162112, align 2, !tbaa !7
  %64 = add nsw i32 %.2113, -1
  br label %65

65:                                               ; preds = %62, %58
  %.263 = phi ptr [ %63, %62 ], [ %.162112, %58 ]
  %.3 = phi i32 [ %64, %62 ], [ %.2113, %58 ]
  %66 = add nsw i32 %59, 1
  %67 = icmp sgt i32 %.059, 0
  %68 = ptrtoint ptr %.07995104111 to i64
  %69 = sub i64 %68, %24
  %70 = lshr exact i64 %69, 1
  %71 = trunc i64 %70 to i32
  %72 = sub i32 %1, %71
  %.160 = select i1 %67, i32 %72, i32 %.059
  br label %25, !llvm.loop !18

73:                                               ; preds = %.thread, %54, %51
  %.168 = phi i32 [ %.067, %51 ], [ %55, %54 ], [ %48, %.thread ]
  %74 = icmp sgt i32 %.168, 255
  br i1 %74, label %75, label %76

75:                                               ; preds = %73
  store i32 66568, ptr %6, align 4, !tbaa !3
  br label %76

76:                                               ; preds = %75, %73
  tail call void @usprep_close_77(ptr noundef %21)
  %77 = tail call i32 @u_terminateUChars_77(ptr noundef %2, i32 noundef %3, i32 noundef %.168, ptr noundef nonnull %6)
  br label %78

78:                                               ; preds = %76, %20, %7, %9, %19
  %.065 = phi i32 [ 0, %19 ], [ 0, %9 ], [ 0, %7 ], [ %77, %76 ], [ 0, %20 ]
  ret i32 %.065
}